; Function Attrs: nounwind uwtable
define void @Acb_TranslateCnf(ptr noundef captures(none) %0, ptr noundef captures(none) %1, ptr noundef readonly captures(none) %2, ptr noundef readonly captures(none) %3, i32 noundef %4) local_unnamed_addr #0 {
  %6 = getelementptr i8, ptr %2, i64 4
  %.val1525 = load i32, ptr %6, align 4, !tbaa !7
  %7 = icmp sgt i32 %.val1525, 0
  br i1 %7, label %.lr.ph, label %.critedge

.lr.ph:                                           ; preds = %5
  %8 = getelementptr i8, ptr %2, i64 8
  %9 = getelementptr i8, ptr %3, i64 8
  %10 = getelementptr i8, ptr %1, i64 4
  %.phi.trans.insert.i19 = getelementptr inbounds nuw i8, ptr %1, i64 8
  %11 = getelementptr inbounds nuw i8, ptr %0, i64 4
  %.phi.trans.insert.i = getelementptr inbounds nuw i8, ptr %0, i64 8
  br label %12

12:                                               ; preds = %.lr.ph, %81
  %indvars.iv = phi i64 [ 0, %.lr.ph ], [ %indvars.iv.next, %81 ]
  %.val16 = load ptr, ptr %8, align 8, !tbaa !13
  %13 = getelementptr inbounds nuw i8, ptr %.val16, i64 %indvars.iv
  %14 = load i8, ptr %13, align 1, !tbaa !14
  %15 = icmp eq i8 %14, -1
  br i1 %15, label %16, label %43

16:                                               ; preds = %12
  %.val = load i32, ptr %10, align 4, !tbaa !15
  %17 = load i32, ptr %11, align 4, !tbaa !15
  %18 = load i32, ptr %0, align 8, !tbaa !31
  %19 = icmp eq i32 %17, %18
  br i1 %19, label %20, label %.Vec_IntGrow.exit10_crit_edge.i

.Vec_IntGrow.exit10_crit_edge.i:                  ; preds = %16
  %.pre.i = load ptr, ptr %.phi.trans.insert.i, align 8, !tbaa !18
  br label %Vec_IntPush.exit

20:                                               ; preds = %16
  %21 = icmp slt i32 %17, 16
  br i1 %21, label %22, label %29

22:                                               ; preds = %20
  %23 = load ptr, ptr %.phi.trans.insert.i, align 8, !tbaa !18
  %.not9.i.i = icmp eq ptr %23, null
  br i1 %.not9.i.i, label %26, label %24

24:                                               ; preds = %22
  %25 = tail call dereferenceable_or_null(64) ptr @realloc(ptr noundef nonnull %23, i64 noundef 64) #23
  br label %Vec_IntGrow.exit.i

26:                                               ; preds = %22
  %27 = tail call noalias dereferenceable_or_null(64) ptr @malloc(i64 noundef 64) #24
  br label %Vec_IntGrow.exit.i

Vec_IntGrow.exit.i:                               ; preds = %26, %24
  %28 = phi ptr [ %25, %24 ], [ %27, %26 ]
  store ptr %28, ptr %.phi.trans.insert.i, align 8, !tbaa !18
  store i32 16, ptr %0, align 8, !tbaa !31
  br label %Vec_IntPush.exit

29:                                               ; preds = %20
  %30 = shl nuw nsw i32 %17, 1
  %31 = load ptr, ptr %.phi.trans.insert.i, align 8, !tbaa !18
  %.not9.i9.i = icmp eq ptr %31, null
  %32 = zext nneg i32 %30 to i64
  %33 = shl nuw nsw i64 %32, 2
  br i1 %.not9.i9.i, label %36, label %34

34:                                               ; preds = %29
  %35 = tail call ptr @realloc(ptr noundef nonnull %31, i64 noundef %33) #23
  br label %38

36:                                               ; preds = %29
  %37 = tail call noalias ptr @malloc(i64 noundef %33) #24
  br label %38

38:                                               ; preds = %36, %34
  %39 = phi ptr [ %35, %34 ], [ %37, %36 ]
  store ptr %39, ptr %.phi.trans.insert.i, align 8, !tbaa !18
  store i32 %30, ptr %0, align 8, !tbaa !31
  br label %Vec_IntPush.exit

Vec_IntPush.exit:                                 ; preds = %.Vec_IntGrow.exit10_crit_edge.i, %Vec_IntGrow.exit.i, %38
  %40 = phi ptr [ %.pre.i, %.Vec_IntGrow.exit10_crit_edge.i ], [ %39, %38 ], [ %28, %Vec_IntGrow.exit.i ]
  %41 = load i32, ptr %11, align 4, !tbaa !15
  %42 = add nsw i32 %41, 1
  store i32 %42, ptr %11, align 4, !tbaa !15
  br label %81

43:                                               ; preds = %12
  %44 = sext i8 %14 to i32
  %.val17 = load ptr, ptr %9, align 8, !tbaa !18
  %45 = ashr i32 %44, 1
  %46 = sext i32 %45 to i64
  %47 = getelementptr inbounds i32, ptr %.val17, i64 %46
  %48 = load i32, ptr %47, align 4, !tbaa !19
  %49 = and i32 %44, 1
  %50 = shl nsw i32 %48, 1
  %51 = or disjoint i32 %50, %49
  %52 = icmp eq i32 %48, %4
  %53 = zext i1 %52 to i32
  %54 = xor i32 %51, %53
  %55 = load i32, ptr %10, align 4, !tbaa !15
  %56 = load i32, ptr %1, align 8, !tbaa !31
  %57 = icmp eq i32 %55, %56
  br i1 %57, label %58, label %.Vec_IntGrow.exit10_crit_edge.i18

.Vec_IntGrow.exit10_crit_edge.i18:                ; preds = %43
  %.pre.i20 = load ptr, ptr %.phi.trans.insert.i19, align 8, !tbaa !18
  br label %Vec_IntPush.exit24

58:                                               ; preds = %43
  %59 = icmp slt i32 %55, 16
  br i1 %59, label %60, label %67

60:                                               ; preds = %58
  %61 = load ptr, ptr %.phi.trans.insert.i19, align 8, !tbaa !18
  %.not9.i.i22 = icmp eq ptr %61, null
  br i1 %.not9.i.i22, label %64, label %62

62:                                               ; preds = %60
  %63 = tail call dereferenceable_or_null(64) ptr @realloc(ptr noundef nonnull %61, i64 noundef 64) #23
  br label %Vec_IntGrow.exit.i23

64:                                               ; preds = %60
  %65 = tail call noalias dereferenceable_or_null(64) ptr @malloc(i64 noundef 64) #24
  br label %Vec_IntGrow.exit.i23

Vec_IntGrow.exit.i23:                             ; preds = %64, %62
  %66 = phi ptr [ %63, %62 ], [ %65, %64 ]
  store ptr %66, ptr %.phi.trans.insert.i19, align 8, !tbaa !18
  store i32 16, ptr %1, align 8, !tbaa !31
  br label %Vec_IntPush.exit24

67:                                               ; preds = %58
  %68 = shl nuw nsw i32 %55, 1
  %69 = load ptr, ptr %.phi.trans.insert.i19, align 8, !tbaa !18
  %.not9.i9.i21 = icmp eq ptr %69, null
  %70 = zext nneg i32 %68 to i64
  %71 = shl nuw nsw i64 %70, 2
  br i1 %.not9.i9.i21, label %74, label %72

72:                                               ; preds = %67
  %73 = tail call ptr @realloc(ptr noundef nonnull %69, i64 noundef %71) #23
  br label %76

74:                                               ; preds = %67
  %75 = tail call noalias ptr @malloc(i64 noundef %71) #24
  br label %76

76:                                               ; preds = %74, %72
  %77 = phi ptr [ %73, %72 ], [ %75, %74 ]
  store ptr %77, ptr %.phi.trans.insert.i19, align 8, !tbaa !18
  store i32 %68, ptr %1, align 8, !tbaa !31
  br label %Vec_IntPush.exit24

Vec_IntPush.exit24:                               ; preds = %.Vec_IntGrow.exit10_crit_edge.i18, %Vec_IntGrow.exit.i23, %76
  %78 = phi ptr [ %.pre.i20, %.Vec_IntGrow.exit10_crit_edge.i18 ], [ %77, %76 ], [ %66, %Vec_IntGrow.exit.i23 ]
  %79 = load i32, ptr %10, align 4, !tbaa !15
  %80 = add nsw i32 %79, 1
  store i32 %80, ptr %10, align 4, !tbaa !15
  br label %81

81:                                               ; preds = %Vec_IntPush.exit24, %Vec_IntPush.exit
  %.sink31 = phi i32 [ %79, %Vec_IntPush.exit24 ], [ %41, %Vec_IntPush.exit ]
  %.sink29 = phi ptr [ %78, %Vec_IntPush.exit24 ], [ %40, %Vec_IntPush.exit ]
  %.sink = phi i32 [ %54, %Vec_IntPush.exit24 ], [ %.val, %Vec_IntPush.exit ]
  %82 = sext i32 %.sink31 to i64
  %83 = getelementptr inbounds i32, ptr %.sink29, i64 %82
  store i32 %.sink, ptr %83, align 4, !tbaa !19
  %indvars.iv.next = add nuw nsw i64 %indvars.iv, 1
  %.val15 = load i32, ptr %6, align 4, !tbaa !7
  %84 = sext i32 %.val15 to i64
  %85 = icmp slt i64 %indvars.iv.next, %84
  br i1 %85, label %12, label %.critedge, !llvm.loop !32

.critedge:                                        ; preds = %81, %5
  ret void
}